target datalayout = "e-m:e-p270:32:32-p271:32:32-p272:64:64-i64:64-i128:128-f80:128-n8:16:32:64-S128"
target triple = "x86_64-pc-linux-gnu"

%struct.git_attr = type { i32, [0 x i8] }
%struct.match_attr = type { %union.anon, i8, i64, [0 x %struct.attr_state] }
%union.anon = type { %struct.pattern }
%struct.pattern = type { ptr, i32, i32, i32 }
%struct.attr_state = type { ptr, ptr }
%struct.all_attrs_item = type { ptr, ptr, ptr }

@git_attr__true = dso_local constant [14 x i8] c"(builtin)true\00", align 1
@git_attr__unknown = internal constant [17 x i8] c"(builtin)unknown\00", align 16

; Function Attrs: nounwind uwtable
define internal i32 @macroexpand_one(ptr noundef %0, i32 noundef %1, i32 noundef %2) #0 {
  %4 = alloca i32, align 4
  %5 = alloca ptr, align 8
  %6 = alloca i32, align 4
  %7 = alloca i32, align 4
  %8 = alloca ptr, align 8
  %9 = alloca i32, align 4
  store ptr %0, ptr %5, align 8, !tbaa !112
  store i32 %1, ptr %6, align 4, !tbaa !13
  store i32 %2, ptr %7, align 4, !tbaa !13
  call void @llvm.lifetime.start.p0(i64 8, ptr %8) #11
  %10 = load ptr, ptr %5, align 8, !tbaa !112
  %11 = load i32, ptr %6, align 4, !tbaa !13
  %12 = sext i32 %11 to i64
  %13 = getelementptr inbounds %struct.all_attrs_item, ptr %10, i64 %12
  store ptr %13, ptr %8, align 8, !tbaa !112
  %14 = load ptr, ptr %8, align 8, !tbaa !112
  %15 = getelementptr inbounds nuw %struct.all_attrs_item, ptr %14, i32 0, i32 2
  %16 = load ptr, ptr %15, align 8, !tbaa !110
  %17 = icmp ne ptr %16, null
  br i1 %17, label %18, label %30

18:                                               ; preds = %3
  %19 = load ptr, ptr %8, align 8, !tbaa !112
  %20 = getelementptr inbounds nuw %struct.all_attrs_item, ptr %19, i32 0, i32 1
  %21 = load ptr, ptr %20, align 8, !tbaa !68
  %22 = icmp eq ptr %21, @git_attr__true
  br i1 %22, label %23, label %30

23:                                               ; preds = %18
  %24 = load ptr, ptr %5, align 8, !tbaa !112
  %25 = load ptr, ptr %8, align 8, !tbaa !112
  %26 = getelementptr inbounds nuw %struct.all_attrs_item, ptr %25, i32 0, i32 2
  %27 = load ptr, ptr %26, align 8, !tbaa !110
  %28 = load i32, ptr %7, align 4, !tbaa !13
  %29 = call i32 @fill_one(ptr noundef %24, ptr noundef %27, i32 noundef %28)
  store i32 %29, ptr %4, align 4
  store i32 1, ptr %9, align 4
  br label %32

30:                                               ; preds = %18, %3
  %31 = load i32, ptr %7, align 4, !tbaa !13
  store i32 %31, ptr %4, align 4
  store i32 1, ptr %9, align 4
  br label %32

32:                                               ; preds = %30, %23
  call void @llvm.lifetime.end.p0(i64 8, ptr %8) #11
  %33 = load i32, ptr %4, align 4
  ret i32 %33
}

; Function Attrs: nounwind uwtable
define internal i32 @fill_one(ptr noundef %0, ptr noundef %1, i32 noundef %2) #0 {
  %4 = alloca ptr, align 8
  %5 = alloca ptr, align 8
  %6 = alloca i32, align 4
  %7 = alloca i64, align 8
  %8 = alloca ptr, align 8
  %9 = alloca ptr, align 8
  %10 = alloca ptr, align 8
  store ptr %0, ptr %4, align 8, !tbaa !112
  store ptr %1, ptr %5, align 8, !tbaa !15
  store i32 %2, ptr %6, align 4, !tbaa !13
  call void @llvm.lifetime.start.p0(i64 8, ptr %7) #11
  %11 = load ptr, ptr %5, align 8, !tbaa !15
  %12 = getelementptr inbounds nuw %struct.match_attr, ptr %11, i32 0, i32 2
  %13 = load i64, ptr %12, align 8, !tbaa !11
  store i64 %13, ptr %7, align 8, !tbaa !11
  br label %14

14:                                               ; preds = %59, %3
  %15 = load i32, ptr %6, align 4, !tbaa !13
  %16 = icmp sgt i32 %15, 0
  br i1 %16, label %17, label %20

17:                                               ; preds = %14
  %18 = load i64, ptr %7, align 8, !tbaa !11
  %19 = icmp ugt i64 %18, 0
  br label %20

20:                                               ; preds = %17, %14
  %21 = phi i1 [ false, %14 ], [ %19, %17 ]
  br i1 %21, label %22, label %62

22:                                               ; preds = %20
  call void @llvm.lifetime.start.p0(i64 8, ptr %8) #11
  %23 = load ptr, ptr %5, align 8, !tbaa !15
  %24 = getelementptr inbounds nuw %struct.match_attr, ptr %23, i32 0, i32 3
  %25 = load i64, ptr %7, align 8, !tbaa !11
  %26 = sub i64 %25, 1
  %27 = getelementptr inbounds nuw [0 x %struct.attr_state], ptr %24, i64 0, i64 %26
  %28 = getelementptr inbounds nuw %struct.attr_state, ptr %27, i32 0, i32 0
  %29 = load ptr, ptr %28, align 8, !tbaa !31
  store ptr %29, ptr %8, align 8, !tbaa !4
  call void @llvm.lifetime.start.p0(i64 8, ptr %9) #11
  %30 = load ptr, ptr %4, align 8, !tbaa !112
  %31 = load ptr, ptr %8, align 8, !tbaa !4
  %32 = getelementptr inbounds nuw %struct.git_attr, ptr %31, i32 0, i32 0
  %33 = load i32, ptr %32, align 4, !tbaa !13
  %34 = zext i32 %33 to i64
  %35 = getelementptr inbounds nuw %struct.all_attrs_item, ptr %30, i64 %34
  %36 = getelementptr inbounds nuw %struct.all_attrs_item, ptr %35, i32 0, i32 1
  store ptr %36, ptr %9, align 8, !tbaa !120
  call void @llvm.lifetime.start.p0(i64 8, ptr %10) #11
  %37 = load ptr, ptr %5, align 8, !tbaa !15
  %38 = getelementptr inbounds nuw %struct.match_attr, ptr %37, i32 0, i32 3
  %39 = load i64, ptr %7, align 8, !tbaa !11
  %40 = sub i64 %39, 1
  %41 = getelementptr inbounds nuw [0 x %struct.attr_state], ptr %38, i64 0, i64 %40
  %42 = getelementptr inbounds nuw %struct.attr_state, ptr %41, i32 0, i32 1
  %43 = load ptr, ptr %42, align 8, !tbaa !29
  store ptr %43, ptr %10, align 8, !tbaa !9
  %44 = load ptr, ptr %9, align 8, !tbaa !120
  %45 = load ptr, ptr %44, align 8, !tbaa !9
  %46 = icmp eq ptr %45, @git_attr__unknown
  br i1 %46, label %47, label %58

47:                                               ; preds = %22
  %48 = load ptr, ptr %10, align 8, !tbaa !9
  %49 = load ptr, ptr %9, align 8, !tbaa !120
  store ptr %48, ptr %49, align 8, !tbaa !9
  %50 = load i32, ptr %6, align 4, !tbaa !13
  %51 = add nsw i32 %50, -1
  store i32 %51, ptr %6, align 4, !tbaa !13
  %52 = load ptr, ptr %4, align 8, !tbaa !112
  %53 = load ptr, ptr %8, align 8, !tbaa !4
  %54 = getelementptr inbounds nuw %struct.git_attr, ptr %53, i32 0, i32 0
  %55 = load i32, ptr %54, align 4, !tbaa !13
  %56 = load i32, ptr %6, align 4, !tbaa !13
  %57 = call i32 @macroexpand_one(ptr noundef %52, i32 noundef %55, i32 noundef %56)
  store i32 %57, ptr %6, align 4, !tbaa !13
  br label %58

58:                                               ; preds = %47, %22
  call void @llvm.lifetime.end.p0(i64 8, ptr %10) #11
  call void @llvm.lifetime.end.p0(i64 8, ptr %9) #11
  call void @llvm.lifetime.end.p0(i64 8, ptr %8) #11
  br label %59

59:                                               ; preds = %58
  %60 = load i64, ptr %7, align 8, !tbaa !11
  %61 = add i64 %60, -1
  store i64 %61, ptr %7, align 8, !tbaa !11
  br label %14, !llvm.loop !154

62:                                               ; preds = %20
  %63 = load i32, ptr %6, align 4, !tbaa !13
  call void @llvm.lifetime.end.p0(i64 8, ptr %7) #11
  ret i32 %63
}