; Function Attrs: nofree nosync nounwind memory(readwrite, inaccessiblemem: none) uwtable
define internal fastcc range(i32 0, -2147483648) i32 @fill_one(ptr noundef captures(none) %0, ptr noundef readonly captures(none) %1, i32 noundef range(i32 0, -2147483648) %2) unnamed_addr #17 {
  %4 = getelementptr inbounds nuw i8, ptr %1, i64 32
  %5 = load i64, ptr %4, align 8, !tbaa !31
  %6 = icmp ne i32 %2, 0
  %7 = icmp ne i64 %5, 0
  %8 = select i1 %6, i1 %7, i1 false
  br i1 %8, label %.lr.ph, label %._crit_edge

.lr.ph:                                           ; preds = %3
  %9 = getelementptr inbounds nuw i8, ptr %1, i64 40
  br label %10

10:                                               ; preds = %.lr.ph, %macroexpand_one.exit
  %.019 = phi i32 [ %2, %.lr.ph ], [ %.1, %macroexpand_one.exit ]
  %.01718 = phi i64 [ %5, %.lr.ph ], [ %11, %macroexpand_one.exit ]
  %11 = add i64 %.01718, -1
  %12 = getelementptr inbounds nuw [0 x %struct.attr_state], ptr %9, i64 0, i64 %11
  %13 = load ptr, ptr %12, align 8, !tbaa !36
  %14 = load i32, ptr %13, align 4, !tbaa !22
  %15 = zext i32 %14 to i64
  %16 = getelementptr inbounds nuw %struct.all_attrs_item, ptr %0, i64 %15, i32 1
  %17 = load ptr, ptr %16, align 8, !tbaa !26
  %18 = icmp eq ptr %17, @git_attr__unknown
  br i1 %18, label %19, label %macroexpand_one.exit

19:                                               ; preds = %10
  %20 = getelementptr inbounds nuw i8, ptr %12, i64 8
  %21 = load ptr, ptr %20, align 8, !tbaa !33
  store ptr %21, ptr %16, align 8, !tbaa !26
  %22 = add nsw i32 %.019, -1
  %23 = sext i32 %14 to i64
  %24 = getelementptr inbounds %struct.all_attrs_item, ptr %0, i64 %23
  %25 = getelementptr inbounds nuw i8, ptr %24, i64 16
  %26 = load ptr, ptr %25, align 8, !tbaa !113
  %.not.i = icmp eq ptr %26, null
  br i1 %.not.i, label %macroexpand_one.exit, label %27

27:                                               ; preds = %19
  %28 = getelementptr inbounds nuw i8, ptr %24, i64 8
  %29 = load ptr, ptr %28, align 8, !tbaa !72
  %30 = icmp eq ptr %29, @git_attr__true
  br i1 %30, label %31, label %macroexpand_one.exit

31:                                               ; preds = %27
  %32 = tail call fastcc i32 @fill_one(ptr noundef nonnull %0, ptr noundef nonnull %26, i32 noundef range(i32 0, 2147483647) %22)
  br label %macroexpand_one.exit

macroexpand_one.exit:                             ; preds = %31, %27, %19, %10
  %.1 = phi i32 [ %.019, %10 ], [ %32, %31 ], [ %22, %27 ], [ %22, %19 ]
  %33 = icmp ne i32 %.1, 0
  %34 = icmp ne i64 %11, 0
  %35 = and i1 %33, %34
  br i1 %35, label %10, label %._crit_edge, !llvm.loop !130

._crit_edge:                                      ; preds = %macroexpand_one.exit, %3
  %.0.lcssa = phi i32 [ %2, %3 ], [ %.1, %macroexpand_one.exit ]
  ret i32 %.0.lcssa
}